; Function Attrs: mustprogress nounwind uwtable
define internal noundef ptr @_ZN12_GLOBAL__N_117ScalarExprEmitter7EmitXorERKNS_9BinOpInfoE(ptr noundef nonnull readonly align 8 captures(none) dereferenceable(32) %0, ptr noundef nonnull readonly align 8 captures(none) dereferenceable(40) %1) #0 align 2 {
  %3 = alloca %"class.llvm::Twine", align 8
  %4 = alloca %"class.llvm::Twine", align 8
  %5 = getelementptr inbounds nuw i8, ptr %0, i64 8
  %6 = load ptr, ptr %5, align 8
  %7 = load ptr, ptr %1, align 8
  %8 = getelementptr inbounds nuw i8, ptr %1, i64 8
  %9 = load ptr, ptr %8, align 8
  %10 = getelementptr inbounds nuw i8, ptr %4, i64 32
  %11 = getelementptr inbounds nuw i8, ptr %4, i64 33
  store i8 1, ptr %11, align 1
  store ptr @.str.105, ptr %4, align 8
  store i8 3, ptr %10, align 8
  call void @llvm.lifetime.start.p0(i64 40, ptr nonnull %3)
  %12 = getelementptr inbounds nuw i8, ptr %6, i64 80
  %13 = load ptr, ptr %12, align 8
  %14 = load ptr, ptr %13, align 8
  %15 = getelementptr inbounds nuw i8, ptr %14, i64 16
  %16 = load ptr, ptr %15, align 8
  %17 = tail call noundef ptr %16(ptr noundef nonnull align 8 dereferenceable(8) %13, i32 noundef 30, ptr noundef %7, ptr noundef %9) #19
  %.not.i = icmp eq ptr %17, null
  br i1 %.not.i, label %18, label %_ZN4llvm13IRBuilderBase9CreateXorEPNS_5ValueES2_RKNS_5TwineE.exit

18:                                               ; preds = %2
  %19 = getelementptr inbounds nuw i8, ptr %3, i64 32
  store i16 257, ptr %19, align 8
  %20 = call noundef ptr @_ZN4llvm14BinaryOperator6CreateENS_11Instruction9BinaryOpsEPNS_5ValueES4_RKNS_5TwineENS_14InsertPositionE(i32 noundef 30, ptr noundef %7, ptr noundef %9, ptr noundef nonnull align 8 dereferenceable(34) %3, ptr null, i64 0) #19
  %21 = getelementptr inbounds nuw i8, ptr %6, i64 88
  %22 = load ptr, ptr %21, align 8
  %23 = getelementptr inbounds nuw i8, ptr %6, i64 56
  %.sroa.0.0.copyload.i.i = load ptr, ptr %23, align 8
  %.sroa.2.0..sroa_idx.i.i = getelementptr inbounds nuw i8, ptr %6, i64 64
  %.sroa.2.0.copyload.i.i = load i64, ptr %.sroa.2.0..sroa_idx.i.i, align 8
  %24 = load ptr, ptr %22, align 8
  %25 = getelementptr inbounds nuw i8, ptr %24, i64 16
  %26 = load ptr, ptr %25, align 8
  call void %26(ptr noundef nonnull align 8 dereferenceable(8) %22, ptr noundef %20, ptr noundef nonnull align 8 dereferenceable(34) %4, ptr %.sroa.0.0.copyload.i.i, i64 %.sroa.2.0.copyload.i.i) #19
  %27 = load ptr, ptr %6, align 8
  %28 = call noundef i64 @_ZNK4llvm15SmallVectorBaseIjE4sizeEv(ptr noundef nonnull align 8 dereferenceable(128) %6) #19
  %29 = getelementptr inbounds %"struct.std::pair.607", ptr %27, i64 %28
  %.not10.i.i.i = icmp eq i64 %28, 0
  br i1 %.not10.i.i.i, label %_ZN4llvm13IRBuilderBase9CreateXorEPNS_5ValueES2_RKNS_5TwineE.exit, label %.lr.ph.i.i.i

.lr.ph.i.i.i:                                     ; preds = %18, %.lr.ph.i.i.i
  %.011.i.i.i = phi ptr [ %33, %.lr.ph.i.i.i ], [ %27, %18 ]
  %30 = load i32, ptr %.011.i.i.i, align 8
  %31 = getelementptr inbounds nuw i8, ptr %.011.i.i.i, i64 8
  %32 = load ptr, ptr %31, align 8
  call void @_ZN4llvm11Instruction11setMetadataEjPNS_6MDNodeE(ptr noundef nonnull align 8 dereferenceable(72) %20, i32 noundef %30, ptr noundef %32) #19
  %33 = getelementptr inbounds nuw i8, ptr %.011.i.i.i, i64 16
  %.not.i.i.i = icmp eq ptr %33, %29
  br i1 %.not.i.i.i, label %_ZN4llvm13IRBuilderBase9CreateXorEPNS_5ValueES2_RKNS_5TwineE.exit, label %.lr.ph.i.i.i

_ZN4llvm13IRBuilderBase9CreateXorEPNS_5ValueES2_RKNS_5TwineE.exit: ; preds = %.lr.ph.i.i.i, %2, %18
  %.0.i = phi ptr [ %17, %2 ], [ %20, %18 ], [ %20, %.lr.ph.i.i.i ]
  call void @llvm.lifetime.end.p0(i64 40, ptr nonnull %3)
  ret ptr %.0.i
}